target datalayout = "e-m:e-p270:32:32-p271:32:32-p272:64:64-i64:64-i128:128-f80:128-n8:16:32:64-S128"
target triple = "x86_64-pc-linux-gnu"

%struct.jvmtiCapabilities = type { i64, i64 }

@_ZN23JvmtiManageCapabilities19always_capabilitiesE = hidden global %struct.jvmtiCapabilities zeroinitializer, align 4
@_ZN23JvmtiManageCapabilities19onload_capabilitiesE = hidden global %struct.jvmtiCapabilities zeroinitializer, align 4
@_ZN23JvmtiManageCapabilities34always_solo_remaining_capabilitiesE = hidden global %struct.jvmtiCapabilities zeroinitializer, align 4
@_ZN23JvmtiManageCapabilities34onload_solo_remaining_capabilitiesE = hidden global %struct.jvmtiCapabilities zeroinitializer, align 4
@_ZN12JvmtiEnvBase6_phaseE = external global i32, align 4

; Function Attrs: mustprogress nounwind uwtable
define linkonce_odr hidden noundef i32 @_ZN12JvmtiEnvBase9get_phaseEv() #1 comdat align 2 {
  %1 = load i32, ptr @_ZN12JvmtiEnvBase6_phaseE, align 4
  ret i32 %1
}

; Function Attrs: mustprogress nounwind uwtable
define hidden noundef ptr @_ZN23JvmtiManageCapabilities6eitherEPK17jvmtiCapabilitiesS2_PS0_(ptr noundef %0, ptr noundef %1, ptr noundef %2) #1 align 2 {
  %4 = alloca ptr, align 8
  %5 = alloca ptr, align 8
  %6 = alloca ptr, align 8
  %7 = alloca ptr, align 8
  %8 = alloca ptr, align 8
  %9 = alloca ptr, align 8
  %10 = alloca i32, align 4
  store ptr %0, ptr %4, align 8
  store ptr %1, ptr %5, align 8
  store ptr %2, ptr %6, align 8
  %11 = load ptr, ptr %4, align 8
  store ptr %11, ptr %7, align 8
  %12 = load ptr, ptr %5, align 8
  store ptr %12, ptr %8, align 8
  %13 = load ptr, ptr %6, align 8
  store ptr %13, ptr %9, align 8
  store i32 0, ptr %10, align 4
  br label %14

14:                                               ; preds = %30, %3
  %15 = load i32, ptr %10, align 4
  %16 = icmp slt i32 %15, 6
  br i1 %16, label %17, label %33

17:                                               ; preds = %14
  %18 = load ptr, ptr %7, align 8
  %19 = getelementptr inbounds i8, ptr %18, i32 1
  store ptr %19, ptr %7, align 8
  %20 = load i8, ptr %18, align 1
  %21 = sext i8 %20 to i32
  %22 = load ptr, ptr %8, align 8
  %23 = getelementptr inbounds i8, ptr %22, i32 1
  store ptr %23, ptr %8, align 8
  %24 = load i8, ptr %22, align 1
  %25 = sext i8 %24 to i32
  %26 = or i32 %21, %25
  %27 = trunc i32 %26 to i8
  %28 = load ptr, ptr %9, align 8
  %29 = getelementptr inbounds i8, ptr %28, i32 1
  store ptr %29, ptr %9, align 8
  store i8 %27, ptr %28, align 1
  br label %30

30:                                               ; preds = %17
  %31 = load i32, ptr %10, align 4
  %32 = add nsw i32 %31, 1
  store i32 %32, ptr %10, align 4
  br label %14, !llvm.loop !6

33:                                               ; preds = %14
  %34 = load ptr, ptr %6, align 8
  ret ptr %34
}

; Function Attrs: mustprogress nounwind uwtable
define hidden noundef ptr @_ZN23JvmtiManageCapabilities7excludeEPK17jvmtiCapabilitiesS2_PS0_(ptr noundef %0, ptr noundef %1, ptr noundef %2) #1 align 2 {
  %4 = alloca ptr, align 8
  %5 = alloca ptr, align 8
  %6 = alloca ptr, align 8
  %7 = alloca ptr, align 8
  %8 = alloca ptr, align 8
  %9 = alloca ptr, align 8
  %10 = alloca i32, align 4
  store ptr %0, ptr %4, align 8
  store ptr %1, ptr %5, align 8
  store ptr %2, ptr %6, align 8
  %11 = load ptr, ptr %4, align 8
  store ptr %11, ptr %7, align 8
  %12 = load ptr, ptr %5, align 8
  store ptr %12, ptr %8, align 8
  %13 = load ptr, ptr %6, align 8
  store ptr %13, ptr %9, align 8
  store i32 0, ptr %10, align 4
  br label %14

14:                                               ; preds = %33, %3
  %15 = load i32, ptr %10, align 4
  %16 = icmp slt i32 %15, 6
  br i1 %16, label %17, label %36

17:                                               ; preds = %14
  %18 = load ptr, ptr %7, align 8
  %19 = getelementptr inbounds i8, ptr %18, i32 1
  store ptr %19, ptr %7, align 8
  %20 = load i8, ptr %18, align 1
  %21 = sext i8 %20 to i32
  %22 = load ptr, ptr %8, align 8
  %23 = getelementptr inbounds i8, ptr %22, i32 1
  store ptr %23, ptr %8, align 8
  %24 = load i8, ptr %22, align 1
  %25 = sext i8 %24 to i32
  %26 = xor i32 %25, -1
  %27 = trunc i32 %26 to i8
  %28 = sext i8 %27 to i32
  %29 = and i32 %21, %28
  %30 = trunc i32 %29 to i8
  %31 = load ptr, ptr %9, align 8
  %32 = getelementptr inbounds i8, ptr %31, i32 1
  store ptr %32, ptr %9, align 8
  store i8 %30, ptr %31, align 1
  br label %33

33:                                               ; preds = %17
  %34 = load i32, ptr %10, align 4
  %35 = add nsw i32 %34, 1
  store i32 %35, ptr %10, align 4
  br label %14, !llvm.loop !9

36:                                               ; preds = %14
  %37 = load ptr, ptr %6, align 8
  ret ptr %37
}

; Function Attrs: mustprogress nounwind uwtable
define hidden void @_ZN23JvmtiManageCapabilities33get_potential_capabilities_nolockEPK17jvmtiCapabilitiesS2_PS0_(ptr noundef %0, ptr noundef %1, ptr noundef %2) #1 align 2 {
  %4 = alloca ptr, align 8
  %5 = alloca ptr, align 8
  %6 = alloca ptr, align 8
  store ptr %0, ptr %4, align 8
  store ptr %1, ptr %5, align 8
  store ptr %2, ptr %6, align 8
  %7 = load ptr, ptr %5, align 8
  %8 = load ptr, ptr %6, align 8
  %9 = call noundef ptr @_ZN23JvmtiManageCapabilities7excludeEPK17jvmtiCapabilitiesS2_PS0_(ptr noundef @_ZN23JvmtiManageCapabilities19always_capabilitiesE, ptr noundef %7, ptr noundef %8)
  %10 = load ptr, ptr %6, align 8
  %11 = load ptr, ptr %4, align 8
  %12 = load ptr, ptr %6, align 8
  %13 = call noundef ptr @_ZN23JvmtiManageCapabilities6eitherEPK17jvmtiCapabilitiesS2_PS0_(ptr noundef %10, ptr noundef %11, ptr noundef %12)
  %14 = load ptr, ptr %6, align 8
  %15 = load ptr, ptr %6, align 8
  %16 = call noundef ptr @_ZN23JvmtiManageCapabilities6eitherEPK17jvmtiCapabilitiesS2_PS0_(ptr noundef %14, ptr noundef @_ZN23JvmtiManageCapabilities34always_solo_remaining_capabilitiesE, ptr noundef %15)
  %17 = call noundef i32 @_ZN12JvmtiEnvBase9get_phaseEv()
  %18 = icmp eq i32 %17, 1
  br i1 %18, label %19, label %26

19:                                               ; preds = %3
  %20 = load ptr, ptr %6, align 8
  %21 = load ptr, ptr %6, align 8
  %22 = call noundef ptr @_ZN23JvmtiManageCapabilities6eitherEPK17jvmtiCapabilitiesS2_PS0_(ptr noundef %20, ptr noundef @_ZN23JvmtiManageCapabilities19onload_capabilitiesE, ptr noundef %21)
  %23 = load ptr, ptr %6, align 8
  %24 = load ptr, ptr %6, align 8
  %25 = call noundef ptr @_ZN23JvmtiManageCapabilities6eitherEPK17jvmtiCapabilitiesS2_PS0_(ptr noundef %23, ptr noundef @_ZN23JvmtiManageCapabilities34onload_solo_remaining_capabilitiesE, ptr noundef %24)
  br label %26

26:                                               ; preds = %19, %3
  ret void
}