; Function Attrs: mustprogress nofree norecurse nosync nounwind memory(readwrite, inaccessiblemem: none) uwtable
define hidden void @_ZN23JvmtiManageCapabilities33get_potential_capabilities_nolockEPK17jvmtiCapabilitiesS2_PS0_(ptr nocapture noundef readonly %0, ptr nocapture noundef readonly %1, ptr nocapture noundef %2) local_unnamed_addr #4 align 2 {
  br label %4

4:                                                ; preds = %4, %3
  %.014.i = phi i32 [ 0, %3 ], [ %12, %4 ]
  %.0813.i = phi ptr [ %2, %3 ], [ %11, %4 ]
  %.0912.i = phi ptr [ %1, %3 ], [ %7, %4 ]
  %.01011.i = phi ptr [ @_ZN23JvmtiManageCapabilities19always_capabilitiesE, %3 ], [ %5, %4 ]
  %5 = getelementptr inbounds i8, ptr %.01011.i, i64 1
  %6 = load i8, ptr %.01011.i, align 1
  %7 = getelementptr inbounds i8, ptr %.0912.i, i64 1
  %8 = load i8, ptr %.0912.i, align 1
  %9 = xor i8 %8, -1
  %10 = and i8 %6, %9
  %11 = getelementptr inbounds i8, ptr %.0813.i, i64 1
  store i8 %10, ptr %.0813.i, align 1
  %12 = add nuw nsw i32 %.014.i, 1
  %exitcond.not.i = icmp eq i32 %12, 6
  br i1 %exitcond.not.i, label %_ZN23JvmtiManageCapabilities7excludeEPK17jvmtiCapabilitiesS2_PS0_.exit, label %4, !llvm.loop !9

_ZN23JvmtiManageCapabilities7excludeEPK17jvmtiCapabilitiesS2_PS0_.exit: ; preds = %4, %_ZN23JvmtiManageCapabilities7excludeEPK17jvmtiCapabilitiesS2_PS0_.exit
  %.014.i11 = phi i32 [ %18, %_ZN23JvmtiManageCapabilities7excludeEPK17jvmtiCapabilitiesS2_PS0_.exit ], [ 0, %4 ]
  %.0813.i12 = phi ptr [ %13, %_ZN23JvmtiManageCapabilities7excludeEPK17jvmtiCapabilitiesS2_PS0_.exit ], [ %2, %4 ]
  %.0912.i13 = phi ptr [ %15, %_ZN23JvmtiManageCapabilities7excludeEPK17jvmtiCapabilitiesS2_PS0_.exit ], [ %0, %4 ]
  %13 = getelementptr i8, ptr %.0813.i12, i64 1
  %14 = load i8, ptr %.0813.i12, align 1
  %15 = getelementptr inbounds i8, ptr %.0912.i13, i64 1
  %16 = load i8, ptr %.0912.i13, align 1
  %17 = or i8 %16, %14
  store i8 %17, ptr %.0813.i12, align 1
  %18 = add nuw nsw i32 %.014.i11, 1
  %exitcond.not.i15 = icmp eq i32 %18, 6
  br i1 %exitcond.not.i15, label %_ZN23JvmtiManageCapabilities6eitherEPK17jvmtiCapabilitiesS2_PS0_.exit, label %_ZN23JvmtiManageCapabilities7excludeEPK17jvmtiCapabilitiesS2_PS0_.exit, !llvm.loop !6

_ZN23JvmtiManageCapabilities6eitherEPK17jvmtiCapabilitiesS2_PS0_.exit: ; preds = %_ZN23JvmtiManageCapabilities7excludeEPK17jvmtiCapabilitiesS2_PS0_.exit, %_ZN23JvmtiManageCapabilities6eitherEPK17jvmtiCapabilitiesS2_PS0_.exit
  %.014.i16 = phi i32 [ %24, %_ZN23JvmtiManageCapabilities6eitherEPK17jvmtiCapabilitiesS2_PS0_.exit ], [ 0, %_ZN23JvmtiManageCapabilities7excludeEPK17jvmtiCapabilitiesS2_PS0_.exit ]
  %.0813.i17 = phi ptr [ %19, %_ZN23JvmtiManageCapabilities6eitherEPK17jvmtiCapabilitiesS2_PS0_.exit ], [ %2, %_ZN23JvmtiManageCapabilities7excludeEPK17jvmtiCapabilitiesS2_PS0_.exit ]
  %.0912.i18 = phi ptr [ %21, %_ZN23JvmtiManageCapabilities6eitherEPK17jvmtiCapabilitiesS2_PS0_.exit ], [ @_ZN23JvmtiManageCapabilities34always_solo_remaining_capabilitiesE, %_ZN23JvmtiManageCapabilities7excludeEPK17jvmtiCapabilitiesS2_PS0_.exit ]
  %19 = getelementptr i8, ptr %.0813.i17, i64 1
  %20 = load i8, ptr %.0813.i17, align 1
  %21 = getelementptr inbounds i8, ptr %.0912.i18, i64 1
  %22 = load i8, ptr %.0912.i18, align 1
  %23 = or i8 %22, %20
  store i8 %23, ptr %.0813.i17, align 1
  %24 = add nuw nsw i32 %.014.i16, 1
  %exitcond.not.i20 = icmp eq i32 %24, 6
  br i1 %exitcond.not.i20, label %_ZN23JvmtiManageCapabilities6eitherEPK17jvmtiCapabilitiesS2_PS0_.exit21, label %_ZN23JvmtiManageCapabilities6eitherEPK17jvmtiCapabilitiesS2_PS0_.exit, !llvm.loop !6

_ZN23JvmtiManageCapabilities6eitherEPK17jvmtiCapabilitiesS2_PS0_.exit21: ; preds = %_ZN23JvmtiManageCapabilities6eitherEPK17jvmtiCapabilitiesS2_PS0_.exit
  %25 = load i32, ptr @_ZN12JvmtiEnvBase6_phaseE, align 4
  %26 = icmp eq i32 %25, 1
  br i1 %26, label %.preheader, label %_ZN23JvmtiManageCapabilities6eitherEPK17jvmtiCapabilitiesS2_PS0_.exit33

.preheader:                                       ; preds = %_ZN23JvmtiManageCapabilities6eitherEPK17jvmtiCapabilitiesS2_PS0_.exit21, %.preheader
  %.014.i22 = phi i32 [ %32, %.preheader ], [ 0, %_ZN23JvmtiManageCapabilities6eitherEPK17jvmtiCapabilitiesS2_PS0_.exit21 ]
  %.0813.i23 = phi ptr [ %27, %.preheader ], [ %2, %_ZN23JvmtiManageCapabilities6eitherEPK17jvmtiCapabilitiesS2_PS0_.exit21 ]
  %.0912.i24 = phi ptr [ %29, %.preheader ], [ @_ZN23JvmtiManageCapabilities19onload_capabilitiesE, %_ZN23JvmtiManageCapabilities6eitherEPK17jvmtiCapabilitiesS2_PS0_.exit21 ]
  %27 = getelementptr i8, ptr %.0813.i23, i64 1
  %28 = load i8, ptr %.0813.i23, align 1
  %29 = getelementptr inbounds i8, ptr %.0912.i24, i64 1
  %30 = load i8, ptr %.0912.i24, align 1
  %31 = or i8 %30, %28
  store i8 %31, ptr %.0813.i23, align 1
  %32 = add nuw nsw i32 %.014.i22, 1
  %exitcond.not.i26 = icmp eq i32 %32, 6
  br i1 %exitcond.not.i26, label %_ZN23JvmtiManageCapabilities6eitherEPK17jvmtiCapabilitiesS2_PS0_.exit27, label %.preheader, !llvm.loop !6

_ZN23JvmtiManageCapabilities6eitherEPK17jvmtiCapabilitiesS2_PS0_.exit27: ; preds = %.preheader, %_ZN23JvmtiManageCapabilities6eitherEPK17jvmtiCapabilitiesS2_PS0_.exit27
  %.014.i28 = phi i32 [ %38, %_ZN23JvmtiManageCapabilities6eitherEPK17jvmtiCapabilitiesS2_PS0_.exit27 ], [ 0, %.preheader ]
  %.0813.i29 = phi ptr [ %33, %_ZN23JvmtiManageCapabilities6eitherEPK17jvmtiCapabilitiesS2_PS0_.exit27 ], [ %2, %.preheader ]
  %.0912.i30 = phi ptr [ %35, %_ZN23JvmtiManageCapabilities6eitherEPK17jvmtiCapabilitiesS2_PS0_.exit27 ], [ @_ZN23JvmtiManageCapabilities34onload_solo_remaining_capabilitiesE, %.preheader ]
  %33 = getelementptr i8, ptr %.0813.i29, i64 1
  %34 = load i8, ptr %.0813.i29, align 1
  %35 = getelementptr inbounds i8, ptr %.0912.i30, i64 1
  %36 = load i8, ptr %.0912.i30, align 1
  %37 = or i8 %36, %34
  store i8 %37, ptr %.0813.i29, align 1
  %38 = add nuw nsw i32 %.014.i28, 1
  %exitcond.not.i32 = icmp eq i32 %38, 6
  br i1 %exitcond.not.i32, label %_ZN23JvmtiManageCapabilities6eitherEPK17jvmtiCapabilitiesS2_PS0_.exit33, label %_ZN23JvmtiManageCapabilities6eitherEPK17jvmtiCapabilitiesS2_PS0_.exit27, !llvm.loop !6

_ZN23JvmtiManageCapabilities6eitherEPK17jvmtiCapabilitiesS2_PS0_.exit33: ; preds = %_ZN23JvmtiManageCapabilities6eitherEPK17jvmtiCapabilitiesS2_PS0_.exit27, %_ZN23JvmtiManageCapabilities6eitherEPK17jvmtiCapabilitiesS2_PS0_.exit21
  ret void
}